target datalayout = "e-m:e-p270:32:32-p271:32:32-p272:64:64-i64:64-i128:128-f80:128-n8:16:32:64-S128"
target triple = "x86_64-pc-linux-gnu"

%class.RarTime = type { i64 }

@.str = private unnamed_addr constant [13 x i8] c"/dev/urandom\00", align 1
@.str.1 = private unnamed_addr constant [2 x i8] c"r\00", align 1
@_ZZL13TimeRandomizePhmE5Count = internal global i32 0, align 4

; Function Attrs: mustprogress nounwind uwtable
define linkonce_odr void @_ZN7RarTime5ResetEv(ptr noundef nonnull align 8 dereferenceable(8) %0) #0 comdat align 2 {
  %2 = alloca ptr, align 8
  store ptr %0, ptr %2, align 8
  %3 = load ptr, ptr %2, align 8
  %4 = getelementptr inbounds %class.RarTime, ptr %3, i32 0, i32 0
  store i64 0, ptr %4, align 8
  ret void
}

; Function Attrs: mustprogress uwtable
define linkonce_odr void @_ZN7RarTimeC2Ev(ptr noundef nonnull align 8 dereferenceable(8) %0) unnamed_addr #1 comdat align 2 {
  %2 = alloca ptr, align 8
  store ptr %0, ptr %2, align 8
  %3 = load ptr, ptr %2, align 8
  call void @_ZN7RarTime5ResetEv(ptr noundef nonnull align 8 dereferenceable(8) %3)
  ret void
}

; Function Attrs: mustprogress uwtable
define internal void @_ZL13TimeRandomizePhm(ptr noundef %0, i64 noundef %1) #1 {
  %3 = alloca ptr, align 8
  %4 = alloca i64, align 8
  %5 = alloca %class.RarTime, align 8
  %6 = alloca i64, align 8
  %7 = alloca i64, align 8
  %8 = alloca i8, align 1
  store ptr %0, ptr %3, align 8
  store i64 %1, ptr %4, align 8
  call void @_ZN7RarTimeC2Ev(ptr noundef nonnull align 8 dereferenceable(8) %5)
  call void @_ZN7RarTime14SetCurrentTimeEv(ptr noundef nonnull align 8 dereferenceable(8) %5)
  %9 = call noundef i64 @_ZN7RarTime6GetWinEv(ptr noundef nonnull align 8 dereferenceable(8) %5)
  %10 = call i64 @clock() #13
  %11 = add i64 %9, %10
  store i64 %11, ptr %6, align 8
  store i64 0, ptr %7, align 8
  br label %12

12:                                               ; preds = %35, %2
  %13 = load i64, ptr %7, align 8
  %14 = load i64, ptr %4, align 8
  %15 = icmp ult i64 %13, %14
  br i1 %15, label %16, label %38

16:                                               ; preds = %12
  %17 = load i64, ptr %6, align 8
  %18 = load i64, ptr %7, align 8
  %19 = and i64 %18, 7
  %20 = mul i64 %19, 8
  %21 = lshr i64 %17, %20
  %22 = trunc i64 %21 to i8
  store i8 %22, ptr %8, align 1
  %23 = load i8, ptr %8, align 1
  %24 = zext i8 %23 to i64
  %25 = load i64, ptr %7, align 8
  %26 = xor i64 %24, %25
  %27 = load i32, ptr @_ZZL13TimeRandomizePhmE5Count, align 4
  %28 = add i32 %27, 1
  store i32 %28, ptr @_ZZL13TimeRandomizePhmE5Count, align 4
  %29 = zext i32 %27 to i64
  %30 = add i64 %26, %29
  %31 = trunc i64 %30 to i8
  %32 = load ptr, ptr %3, align 8
  %33 = load i64, ptr %7, align 8
  %34 = getelementptr inbounds i8, ptr %32, i64 %33
  store i8 %31, ptr %34, align 1
  br label %35

35:                                               ; preds = %16
  %36 = load i64, ptr %7, align 8
  %37 = add i64 %36, 1
  store i64 %37, ptr %7, align 8
  br label %12, !llvm.loop !32

38:                                               ; preds = %12
  ret void
}

; Function Attrs: mustprogress uwtable
define void @_Z6GetRndPhm(ptr noundef %0, i64 noundef %1) #1 {
  %3 = alloca ptr, align 8
  %4 = alloca i64, align 8
  %5 = alloca i8, align 1
  %6 = alloca ptr, align 8
  store ptr %0, ptr %3, align 8
  store i64 %1, ptr %4, align 8
  store i8 0, ptr %5, align 1
  %7 = call noalias ptr @fopen64(ptr noundef @.str, ptr noundef @.str.1)
  store ptr %7, ptr %6, align 8
  %8 = load ptr, ptr %6, align 8
  %9 = icmp ne ptr %8, null
  br i1 %9, label %10, label %20

10:                                               ; preds = %2
  %11 = load ptr, ptr %3, align 8
  %12 = load i64, ptr %4, align 8
  %13 = load ptr, ptr %6, align 8
  %14 = call i64 @fread(ptr noundef %11, i64 noundef %12, i64 noundef 1, ptr noundef %13)
  %15 = load i64, ptr %4, align 8
  %16 = icmp eq i64 %14, %15
  %17 = zext i1 %16 to i8
  store i8 %17, ptr %5, align 1
  %18 = load ptr, ptr %6, align 8
  %19 = call i32 @fclose(ptr noundef %18)
  br label %20

20:                                               ; preds = %10, %2
  %21 = load i8, ptr %5, align 1
  %22 = trunc i8 %21 to i1
  br i1 %22, label %26, label %23

23:                                               ; preds = %20
  %24 = load ptr, ptr %3, align 8
  %25 = load i64, ptr %4, align 8
  call void @_ZL13TimeRandomizePhm(ptr noundef %24, i64 noundef %25)
  br label %26

26:                                               ; preds = %23, %20
  ret void
}