; Function Attrs: mustprogress uwtable
define void @_Z6GetRndPhm(ptr noundef captures(none) %0, i64 noundef %1) local_unnamed_addr #1 {
  %3 = alloca %class.RarTime, align 8
  %4 = tail call noalias ptr @fopen64(ptr noundef nonnull @.str, ptr noundef nonnull @.str.1)
  %.not = icmp eq ptr %4, null
  br i1 %.not, label %.critedge, label %5

5:                                                ; preds = %2
  %6 = tail call i64 @fread(ptr noundef %0, i64 noundef %1, i64 noundef 1, ptr noundef nonnull %4)
  %7 = icmp eq i64 %6, %1
  %8 = tail call i32 @fclose(ptr noundef nonnull %4)
  br i1 %7, label %23, label %.critedge

.critedge:                                        ; preds = %2, %5
  call void @llvm.lifetime.start.p0(i64 8, ptr nonnull %3)
  store i64 0, ptr %3, align 8
  call void @_ZN7RarTime14SetCurrentTimeEv(ptr noundef nonnull align 8 dereferenceable(8) %3)
  %9 = call noundef i64 @_ZN7RarTime6GetWinEv(ptr noundef nonnull align 8 dereferenceable(8) %3)
  %10 = call i64 @clock() #20
  %11 = add i64 %10, %9
  %.not.i = icmp eq i64 %1, 0
  br i1 %.not.i, label %_ZL13TimeRandomizePhm.exit, label %.lr.ph.preheader.i

.lr.ph.preheader.i:                               ; preds = %.critedge
  %_ZZL13TimeRandomizePhmE5Count.promoted.i = load i32, ptr @_ZZL13TimeRandomizePhmE5Count, align 4
  br label %.lr.ph.i

.lr.ph.i:                                         ; preds = %.lr.ph.i, %.lr.ph.preheader.i
  %.08.i = phi i64 [ %22, %.lr.ph.i ], [ 0, %.lr.ph.preheader.i ]
  %12 = phi i32 [ %17, %.lr.ph.i ], [ %_ZZL13TimeRandomizePhmE5Count.promoted.i, %.lr.ph.preheader.i ]
  %13 = shl i64 %.08.i, 3
  %14 = and i64 %13, 56
  %15 = lshr i64 %11, %14
  %16 = xor i64 %15, %.08.i
  %17 = add i32 %12, 1
  %18 = zext i32 %12 to i64
  %19 = add i64 %16, %18
  %20 = trunc i64 %19 to i8
  %21 = getelementptr inbounds i8, ptr %0, i64 %.08.i
  store i8 %20, ptr %21, align 1
  %22 = add nuw i64 %.08.i, 1
  %exitcond.not.i = icmp eq i64 %22, %1
  br i1 %exitcond.not.i, label %._crit_edge.i, label %.lr.ph.i, !llvm.loop !29

._crit_edge.i:                                    ; preds = %.lr.ph.i
  store i32 %17, ptr @_ZZL13TimeRandomizePhmE5Count, align 4
  br label %_ZL13TimeRandomizePhm.exit

_ZL13TimeRandomizePhm.exit:                       ; preds = %.critedge, %._crit_edge.i
  call void @llvm.lifetime.end.p0(i64 8, ptr nonnull %3)
  br label %23

23:                                               ; preds = %_ZL13TimeRandomizePhm.exit, %5
  ret void
}